target datalayout = "e-m:e-p270:32:32-p271:32:32-p272:64:64-i64:64-i128:128-f80:128-n8:16:32:64-S128"
target triple = "x86_64-pc-linux-gnu"

%struct.conf_st = type { ptr }
%struct.conf_value_st = type { ptr, ptr, ptr }

; Function Attrs: nounwind uwtable
define internal ptr @get_section(ptr noundef %0, ptr noundef %1) #0 {
  %3 = alloca ptr, align 8
  %4 = alloca ptr, align 8
  %5 = alloca %struct.conf_value_st, align 8
  store ptr %0, ptr %3, align 8, !tbaa !10
  store ptr %1, ptr %4, align 8, !tbaa !23
  call void @llvm.lifetime.start.p0(i64 24, ptr %5) #8
  call void @llvm.memset.p0.i64(ptr align 8 %5, i8 0, i64 24, i1 false)
  %6 = load ptr, ptr %4, align 8, !tbaa !23
  %7 = getelementptr inbounds nuw %struct.conf_value_st, ptr %5, i32 0, i32 0
  store ptr %6, ptr %7, align 8, !tbaa !17
  %8 = load ptr, ptr %3, align 8, !tbaa !10
  %9 = getelementptr inbounds nuw %struct.conf_st, ptr %8, i32 0, i32 0
  %10 = load ptr, ptr %9, align 8, !tbaa !12
  %11 = call ptr @lh_retrieve(ptr noundef %10, ptr noundef %5)
  call void @llvm.lifetime.end.p0(i64 24, ptr %5) #8
  ret ptr %11
}

; Function Attrs: nounwind uwtable
define hidden ptr @NCONF_get_section(ptr noundef %0, ptr noundef %1) #0 {
  %3 = alloca ptr, align 8
  %4 = alloca ptr, align 8
  %5 = alloca ptr, align 8
  %6 = alloca ptr, align 8
  %7 = alloca i32, align 4
  store ptr %0, ptr %4, align 8, !tbaa !10
  store ptr %1, ptr %5, align 8, !tbaa !23
  call void @llvm.lifetime.start.p0(i64 8, ptr %6) #8
  %8 = load ptr, ptr %4, align 8, !tbaa !10
  %9 = load ptr, ptr %5, align 8, !tbaa !23
  %10 = call ptr @get_section(ptr noundef %8, ptr noundef %9)
  store ptr %10, ptr %6, align 8, !tbaa !15
  %11 = load ptr, ptr %6, align 8, !tbaa !15
  %12 = icmp eq ptr %11, null
  br i1 %12, label %13, label %14

13:                                               ; preds = %2
  store ptr null, ptr %3, align 8
  store i32 1, ptr %7, align 4
  br label %18

14:                                               ; preds = %2
  %15 = load ptr, ptr %6, align 8, !tbaa !15
  %16 = getelementptr inbounds nuw %struct.conf_value_st, ptr %15, i32 0, i32 2
  %17 = load ptr, ptr %16, align 8, !tbaa !24
  store ptr %17, ptr %3, align 8
  store i32 1, ptr %7, align 4
  br label %18

18:                                               ; preds = %14, %13
  call void @llvm.lifetime.end.p0(i64 8, ptr %6) #8
  %19 = load ptr, ptr %3, align 8
  ret ptr %19
}