; Function Attrs: nounwind uwtable
define hidden ptr @NCONF_get_section(ptr noundef readonly captures(none) %0, ptr noundef %1) local_unnamed_addr #0 {
  %3 = alloca %struct.conf_value_st, align 8
  %.val = load ptr, ptr %0, align 8, !tbaa !6
  call void @llvm.lifetime.start.p0(i64 24, ptr nonnull %3) #12
  %4 = getelementptr inbounds nuw i8, ptr %3, i64 8
  call void @llvm.memset.p0.i64(ptr noundef nonnull align 8 dereferenceable(24) %4, i8 0, i64 16, i1 false)
  store ptr %1, ptr %3, align 8, !tbaa !12
  %5 = call ptr @lh_retrieve(ptr noundef %.val, ptr noundef nonnull %3) #12
  call void @llvm.lifetime.end.p0(i64 24, ptr nonnull %3) #12
  %6 = icmp eq ptr %5, null
  br i1 %6, label %10, label %7

7:                                                ; preds = %2
  %8 = getelementptr inbounds nuw i8, ptr %5, i64 16
  %9 = load ptr, ptr %8, align 8, !tbaa !16
  br label %10

10:                                               ; preds = %2, %7
  %.0 = phi ptr [ %9, %7 ], [ null, %2 ]
  ret ptr %.0
}